target datalayout = "e-m:e-p270:32:32-p271:32:32-p272:64:64-i64:64-i128:128-f80:128-n8:16:32:64-S128"
target triple = "x86_64-pc-linux-gnu"

%struct._object = type { %union.anon, ptr }
%union.anon = type { i64 }
%struct._longobject = type { %struct._object, %struct._PyLongValue }
%struct._PyLongValue = type { i64, [1 x i32] }
%struct.PyMethodDef = type { ptr, ptr, i32, ptr }
%struct.PyCFunctionObject = type { %struct._object, ptr, ptr, ptr, ptr, ptr }
%struct.anon = type { i32, i32 }

@_Py_NotImplementedStruct = external global %struct._object, align 8
@_Py_TrueStruct = external global %struct._longobject, align 8
@_Py_FalseStruct = external global %struct._longobject, align 8

; Function Attrs: alwaysinline nounwind uwtable
define internal void @Py_INCREF(ptr noundef %0) #4 {
  %2 = alloca ptr, align 8
  %3 = alloca i32, align 4
  %4 = alloca i32, align 4
  store ptr %0, ptr %2, align 8, !tbaa !9
  call void @llvm.lifetime.start.p0(i64 4, ptr %3) #6
  %5 = load ptr, ptr %2, align 8, !tbaa !9
  %6 = getelementptr inbounds nuw %struct._object, ptr %5, i32 0, i32 0
  %7 = getelementptr inbounds nuw %struct.anon, ptr %6, i32 0, i32 0
  %8 = load i32, ptr %7, align 8, !tbaa !124
  store i32 %8, ptr %3, align 4, !tbaa !123
  %9 = load i32, ptr %3, align 4, !tbaa !123
  %10 = icmp slt i32 %9, 0
  br i1 %10, label %11, label %12

11:                                               ; preds = %1
  store i32 1, ptr %4, align 4
  br label %18

12:                                               ; preds = %1
  %13 = load i32, ptr %3, align 4, !tbaa !123
  %14 = add i32 %13, 1
  %15 = load ptr, ptr %2, align 8, !tbaa !9
  %16 = getelementptr inbounds nuw %struct._object, ptr %15, i32 0, i32 0
  %17 = getelementptr inbounds nuw %struct.anon, ptr %16, i32 0, i32 0
  store i32 %14, ptr %17, align 8, !tbaa !124
  store i32 0, ptr %4, align 4
  br label %18

18:                                               ; preds = %12, %11
  call void @llvm.lifetime.end.p0(i64 4, ptr %3) #6
  %19 = load i32, ptr %4, align 4
  switch i32 %19, label %21 [
    i32 0, label %20
    i32 1, label %20
  ]

20:                                               ; preds = %18, %18
  ret void

21:                                               ; preds = %18
  unreachable
}

; Function Attrs: inlinehint nounwind uwtable
define internal ptr @_Py_TYPE(ptr noundef %0) #3 {
  %2 = alloca ptr, align 8
  store ptr %0, ptr %2, align 8, !tbaa !9
  %3 = load ptr, ptr %2, align 8, !tbaa !9
  %4 = getelementptr inbounds nuw %struct._object, ptr %3, i32 0, i32 1
  %5 = load ptr, ptr %4, align 8, !tbaa !127
  ret ptr %5
}

; Function Attrs: inlinehint nounwind uwtable
define internal i32 @Py_IS_TYPE(ptr noundef %0, ptr noundef %1) #3 {
  %3 = alloca ptr, align 8
  %4 = alloca ptr, align 8
  store ptr %0, ptr %3, align 8, !tbaa !9
  store ptr %1, ptr %4, align 8, !tbaa !11
  %5 = load ptr, ptr %3, align 8, !tbaa !9
  %6 = call ptr @_Py_TYPE(ptr noundef %5)
  %7 = load ptr, ptr %4, align 8, !tbaa !11
  %8 = icmp eq ptr %6, %7
  %9 = zext i1 %8 to i32
  ret i32 %9
}

; Function Attrs: inlinehint nounwind uwtable
define internal ptr @_Py_NewRef(ptr noundef %0) #3 {
  %2 = alloca ptr, align 8
  store ptr %0, ptr %2, align 8, !tbaa !9
  %3 = load ptr, ptr %2, align 8, !tbaa !9
  call void @Py_INCREF(ptr noundef %3)
  %4 = load ptr, ptr %2, align 8, !tbaa !9
  ret ptr %4
}

; Function Attrs: inlinehint nounwind uwtable
define internal i32 @PyObject_TypeCheck(ptr noundef %0, ptr noundef %1) #3 {
  %3 = alloca ptr, align 8
  %4 = alloca ptr, align 8
  store ptr %0, ptr %3, align 8, !tbaa !9
  store ptr %1, ptr %4, align 8, !tbaa !11
  %5 = load ptr, ptr %3, align 8, !tbaa !9
  %6 = load ptr, ptr %4, align 8, !tbaa !11
  %7 = call i32 @Py_IS_TYPE(ptr noundef %5, ptr noundef %6)
  %8 = icmp ne i32 %7, 0
  br i1 %8, label %15, label %9

9:                                                ; preds = %2
  %10 = load ptr, ptr %3, align 8, !tbaa !9
  %11 = call ptr @_Py_TYPE(ptr noundef %10)
  %12 = load ptr, ptr %4, align 8, !tbaa !11
  %13 = call i32 @PyType_IsSubtype(ptr noundef %11, ptr noundef %12)
  %14 = icmp ne i32 %13, 0
  br label %15

15:                                               ; preds = %9, %2
  %16 = phi i1 [ true, %2 ], [ %14, %9 ]
  %17 = zext i1 %16 to i32
  ret i32 %17
}

; Function Attrs: nounwind uwtable
define internal ptr @meth_richcompare(ptr noundef %0, ptr noundef %1, i32 noundef %2) #0 {
  %4 = alloca ptr, align 8
  %5 = alloca ptr, align 8
  %6 = alloca ptr, align 8
  %7 = alloca i32, align 4
  %8 = alloca ptr, align 8
  %9 = alloca ptr, align 8
  %10 = alloca ptr, align 8
  %11 = alloca i32, align 4
  %12 = alloca i32, align 4
  store ptr %0, ptr %5, align 8, !tbaa !9
  store ptr %1, ptr %6, align 8, !tbaa !9
  store i32 %2, ptr %7, align 4, !tbaa !123
  call void @llvm.lifetime.start.p0(i64 8, ptr %8) #6
  call void @llvm.lifetime.start.p0(i64 8, ptr %9) #6
  call void @llvm.lifetime.start.p0(i64 8, ptr %10) #6
  call void @llvm.lifetime.start.p0(i64 4, ptr %11) #6
  %13 = load i32, ptr %7, align 4, !tbaa !123
  %14 = icmp ne i32 %13, 2
  br i1 %14, label %15, label %18

15:                                               ; preds = %3
  %16 = load i32, ptr %7, align 4, !tbaa !123
  %17 = icmp ne i32 %16, 3
  br i1 %17, label %26, label %18

18:                                               ; preds = %15, %3
  %19 = load ptr, ptr %5, align 8, !tbaa !9
  %20 = call i32 @PyObject_TypeCheck(ptr noundef %19, ptr noundef @PyCFunction_Type)
  %21 = icmp ne i32 %20, 0
  br i1 %21, label %22, label %26

22:                                               ; preds = %18
  %23 = load ptr, ptr %6, align 8, !tbaa !9
  %24 = call i32 @PyObject_TypeCheck(ptr noundef %23, ptr noundef @PyCFunction_Type)
  %25 = icmp ne i32 %24, 0
  br i1 %25, label %27, label %26

26:                                               ; preds = %22, %18, %15
  store ptr @_Py_NotImplementedStruct, ptr %4, align 8
  store i32 1, ptr %12, align 4
  br label %67

27:                                               ; preds = %22
  %28 = load ptr, ptr %5, align 8, !tbaa !9
  store ptr %28, ptr %8, align 8, !tbaa !17
  %29 = load ptr, ptr %6, align 8, !tbaa !9
  store ptr %29, ptr %9, align 8, !tbaa !17
  %30 = load ptr, ptr %8, align 8, !tbaa !17
  %31 = getelementptr inbounds nuw %struct.PyCFunctionObject, ptr %30, i32 0, i32 2
  %32 = load ptr, ptr %31, align 8, !tbaa !25
  %33 = load ptr, ptr %9, align 8, !tbaa !17
  %34 = getelementptr inbounds nuw %struct.PyCFunctionObject, ptr %33, i32 0, i32 2
  %35 = load ptr, ptr %34, align 8, !tbaa !25
  %36 = icmp eq ptr %32, %35
  %37 = zext i1 %36 to i32
  store i32 %37, ptr %11, align 4, !tbaa !123
  %38 = load i32, ptr %11, align 4, !tbaa !123
  %39 = icmp ne i32 %38, 0
  br i1 %39, label %40, label %53

40:                                               ; preds = %27
  %41 = load ptr, ptr %8, align 8, !tbaa !17
  %42 = getelementptr inbounds nuw %struct.PyCFunctionObject, ptr %41, i32 0, i32 1
  %43 = load ptr, ptr %42, align 8, !tbaa !24
  %44 = getelementptr inbounds nuw %struct.PyMethodDef, ptr %43, i32 0, i32 1
  %45 = load ptr, ptr %44, align 8, !tbaa !113
  %46 = load ptr, ptr %9, align 8, !tbaa !17
  %47 = getelementptr inbounds nuw %struct.PyCFunctionObject, ptr %46, i32 0, i32 1
  %48 = load ptr, ptr %47, align 8, !tbaa !24
  %49 = getelementptr inbounds nuw %struct.PyMethodDef, ptr %48, i32 0, i32 1
  %50 = load ptr, ptr %49, align 8, !tbaa !113
  %51 = icmp eq ptr %45, %50
  %52 = zext i1 %51 to i32
  store i32 %52, ptr %11, align 4, !tbaa !123
  br label %53

53:                                               ; preds = %40, %27
  %54 = load i32, ptr %7, align 4, !tbaa !123
  %55 = icmp eq i32 %54, 2
  br i1 %55, label %56, label %60

56:                                               ; preds = %53
  %57 = load i32, ptr %11, align 4, !tbaa !123
  %58 = icmp ne i32 %57, 0
  %59 = select i1 %58, ptr @_Py_TrueStruct, ptr @_Py_FalseStruct
  store ptr %59, ptr %10, align 8, !tbaa !9
  br label %64

60:                                               ; preds = %53
  %61 = load i32, ptr %11, align 4, !tbaa !123
  %62 = icmp ne i32 %61, 0
  %63 = select i1 %62, ptr @_Py_FalseStruct, ptr @_Py_TrueStruct
  store ptr %63, ptr %10, align 8, !tbaa !9
  br label %64

64:                                               ; preds = %60, %56
  %65 = load ptr, ptr %10, align 8, !tbaa !9
  %66 = call ptr @_Py_NewRef(ptr noundef %65)
  store ptr %66, ptr %4, align 8
  store i32 1, ptr %12, align 4
  br label %67

67:                                               ; preds = %64, %26
  call void @llvm.lifetime.end.p0(i64 4, ptr %11) #6
  call void @llvm.lifetime.end.p0(i64 8, ptr %10) #6
  call void @llvm.lifetime.end.p0(i64 8, ptr %9) #6
  call void @llvm.lifetime.end.p0(i64 8, ptr %8) #6
  %68 = load ptr, ptr %4, align 8
  ret ptr %68
}