; Function Attrs: nounwind uwtable
define internal noundef nonnull ptr @meth_richcompare(ptr noundef readonly captures(none) %0, ptr noundef readonly captures(none) %1, i32 noundef %2) #0 {
  %4 = add i32 %2, -4
  %or.cond = icmp ult i32 %4, -2
  br i1 %or.cond, label %_Py_NewRef.exit, label %5

5:                                                ; preds = %3
  %6 = getelementptr i8, ptr %0, i64 8
  %.val19 = load ptr, ptr %6, align 8, !tbaa !113
  %.not.i = icmp eq ptr %.val19, @PyCFunction_Type
  br i1 %.not.i, label %PyObject_TypeCheck.exit.thread, label %PyObject_TypeCheck.exit

PyObject_TypeCheck.exit:                          ; preds = %5
  %7 = tail call i32 @PyType_IsSubtype(ptr noundef %.val19, ptr noundef nonnull @PyCFunction_Type) #5
  %.not24 = icmp eq i32 %7, 0
  br i1 %.not24, label %_Py_NewRef.exit, label %PyObject_TypeCheck.exit.thread

PyObject_TypeCheck.exit.thread:                   ; preds = %5, %PyObject_TypeCheck.exit
  %8 = getelementptr i8, ptr %1, i64 8
  %.val = load ptr, ptr %8, align 8, !tbaa !113
  %.not.i20 = icmp eq ptr %.val, @PyCFunction_Type
  br i1 %.not.i20, label %PyObject_TypeCheck.exit21.thread, label %PyObject_TypeCheck.exit21

PyObject_TypeCheck.exit21:                        ; preds = %PyObject_TypeCheck.exit.thread
  %9 = tail call i32 @PyType_IsSubtype(ptr noundef %.val, ptr noundef nonnull @PyCFunction_Type) #5
  %.not = icmp eq i32 %9, 0
  br i1 %.not, label %_Py_NewRef.exit, label %PyObject_TypeCheck.exit21.thread

PyObject_TypeCheck.exit21.thread:                 ; preds = %PyObject_TypeCheck.exit.thread, %PyObject_TypeCheck.exit21
  %10 = getelementptr inbounds nuw i8, ptr %0, i64 24
  %11 = load ptr, ptr %10, align 8, !tbaa !23
  %12 = getelementptr inbounds nuw i8, ptr %1, i64 24
  %13 = load ptr, ptr %12, align 8, !tbaa !23
  %14 = icmp eq ptr %11, %13
  br i1 %14, label %15, label %25

15:                                               ; preds = %PyObject_TypeCheck.exit21.thread
  %16 = getelementptr inbounds nuw i8, ptr %0, i64 16
  %17 = load ptr, ptr %16, align 8, !tbaa !22
  %18 = getelementptr inbounds nuw i8, ptr %17, i64 8
  %19 = load ptr, ptr %18, align 8, !tbaa !112
  %20 = getelementptr inbounds nuw i8, ptr %1, i64 16
  %21 = load ptr, ptr %20, align 8, !tbaa !22
  %22 = getelementptr inbounds nuw i8, ptr %21, i64 8
  %23 = load ptr, ptr %22, align 8, !tbaa !112
  %24 = icmp eq ptr %19, %23
  br label %25

25:                                               ; preds = %15, %PyObject_TypeCheck.exit21.thread
  %.0.in = phi i1 [ %24, %15 ], [ false, %PyObject_TypeCheck.exit21.thread ]
  %26 = icmp eq i32 %2, 2
  %27 = xor i1 %26, %.0.in
  %.016 = select i1 %27, ptr @_Py_FalseStruct, ptr @_Py_TrueStruct
  %28 = load i32, ptr %.016, align 8, !tbaa !14
  %29 = icmp slt i32 %28, 0
  br i1 %29, label %_Py_NewRef.exit, label %30

30:                                               ; preds = %25
  %31 = add nuw i32 %28, 1
  store i32 %31, ptr %.016, align 8, !tbaa !14
  br label %_Py_NewRef.exit

_Py_NewRef.exit:                                  ; preds = %30, %25, %PyObject_TypeCheck.exit, %PyObject_TypeCheck.exit21, %3
  %.017 = phi ptr [ @_Py_NotImplementedStruct, %3 ], [ @_Py_NotImplementedStruct, %PyObject_TypeCheck.exit21 ], [ @_Py_NotImplementedStruct, %PyObject_TypeCheck.exit ], [ %.016, %25 ], [ %.016, %30 ]
  ret ptr %.017
}